target datalayout = "e-m:e-p270:32:32-p271:32:32-p272:64:64-i64:64-i128:128-f80:128-n8:16:32:64-S128"
target triple = "x86_64-pc-linux-gnu"

%struct.fe_scram_state = type { i32, ptr, ptr, ptr, i32, i32, [32 x i8], ptr, ptr, ptr, ptr, ptr, i32, i32, ptr, ptr, [32 x i8] }

; Function Attrs: nounwind uwtable
define internal void @scram_free(ptr noundef %0) #0 {
  %2 = alloca ptr, align 8
  %3 = alloca ptr, align 8
  store ptr %0, ptr %2, align 8
  call void @llvm.lifetime.start.p0(i64 8, ptr %3) #8
  %4 = load ptr, ptr %2, align 8
  store ptr %4, ptr %3, align 8
  %5 = load ptr, ptr %3, align 8
  %6 = getelementptr inbounds nuw %struct.fe_scram_state, ptr %5, i32 0, i32 2
  %7 = load ptr, ptr %6, align 8
  call void @free(ptr noundef %7) #8
  %8 = load ptr, ptr %3, align 8
  %9 = getelementptr inbounds nuw %struct.fe_scram_state, ptr %8, i32 0, i32 3
  %10 = load ptr, ptr %9, align 8
  call void @free(ptr noundef %10) #8
  %11 = load ptr, ptr %3, align 8
  %12 = getelementptr inbounds nuw %struct.fe_scram_state, ptr %11, i32 0, i32 7
  %13 = load ptr, ptr %12, align 8
  call void @free(ptr noundef %13) #8
  %14 = load ptr, ptr %3, align 8
  %15 = getelementptr inbounds nuw %struct.fe_scram_state, ptr %14, i32 0, i32 8
  %16 = load ptr, ptr %15, align 8
  call void @free(ptr noundef %16) #8
  %17 = load ptr, ptr %3, align 8
  %18 = getelementptr inbounds nuw %struct.fe_scram_state, ptr %17, i32 0, i32 9
  %19 = load ptr, ptr %18, align 8
  call void @free(ptr noundef %19) #8
  %20 = load ptr, ptr %3, align 8
  %21 = getelementptr inbounds nuw %struct.fe_scram_state, ptr %20, i32 0, i32 10
  %22 = load ptr, ptr %21, align 8
  call void @free(ptr noundef %22) #8
  %23 = load ptr, ptr %3, align 8
  %24 = getelementptr inbounds nuw %struct.fe_scram_state, ptr %23, i32 0, i32 11
  %25 = load ptr, ptr %24, align 8
  call void @free(ptr noundef %25) #8
  %26 = load ptr, ptr %3, align 8
  %27 = getelementptr inbounds nuw %struct.fe_scram_state, ptr %26, i32 0, i32 14
  %28 = load ptr, ptr %27, align 8
  call void @free(ptr noundef %28) #8
  %29 = load ptr, ptr %3, align 8
  %30 = getelementptr inbounds nuw %struct.fe_scram_state, ptr %29, i32 0, i32 15
  %31 = load ptr, ptr %30, align 8
  call void @free(ptr noundef %31) #8
  %32 = load ptr, ptr %3, align 8
  call void @free(ptr noundef %32) #8
  call void @llvm.lifetime.end.p0(i64 8, ptr %3) #8
  ret void
}