; Function Attrs: mustprogress nounwind willreturn uwtable
define internal void @scram_free(ptr noundef captures(none) %0) #2 {
  %2 = getelementptr inbounds nuw i8, ptr %0, i64 16
  %3 = load ptr, ptr %2, align 8
  tail call void @free(ptr noundef %3) #13
  %4 = getelementptr inbounds nuw i8, ptr %0, i64 24
  %5 = load ptr, ptr %4, align 8
  tail call void @free(ptr noundef %5) #13
  %6 = getelementptr inbounds nuw i8, ptr %0, i64 72
  %7 = load ptr, ptr %6, align 8
  tail call void @free(ptr noundef %7) #13
  %8 = getelementptr inbounds nuw i8, ptr %0, i64 80
  %9 = load ptr, ptr %8, align 8
  tail call void @free(ptr noundef %9) #13
  %10 = getelementptr inbounds nuw i8, ptr %0, i64 88
  %11 = load ptr, ptr %10, align 8
  tail call void @free(ptr noundef %11) #13
  %12 = getelementptr inbounds nuw i8, ptr %0, i64 96
  %13 = load ptr, ptr %12, align 8
  tail call void @free(ptr noundef %13) #13
  %14 = getelementptr inbounds nuw i8, ptr %0, i64 104
  %15 = load ptr, ptr %14, align 8
  tail call void @free(ptr noundef %15) #13
  %16 = getelementptr inbounds nuw i8, ptr %0, i64 120
  %17 = load ptr, ptr %16, align 8
  tail call void @free(ptr noundef %17) #13
  %18 = getelementptr inbounds nuw i8, ptr %0, i64 128
  %19 = load ptr, ptr %18, align 8
  tail call void @free(ptr noundef %19) #13
  tail call void @free(ptr noundef %0) #13
  ret void
}